; Function Attrs: nounwind uwtable
define internal void @swapIntervalGLX(i32 noundef %0) #0 {
  %2 = tail call ptr @_glfwPlatformGetTls(ptr noundef nonnull getelementptr inbounds nuw (i8, ptr @_glfw, i64 133412)) #4
  %3 = load i32, ptr getelementptr inbounds nuw (i8, ptr @_glfw, i64 143540), align 4, !tbaa !113
  %.not = icmp eq i32 %3, 0
  br i1 %.not, label %9, label %4

4:                                                ; preds = %1
  %5 = load ptr, ptr getelementptr inbounds nuw (i8, ptr @_glfw, i64 143512), align 8, !tbaa !112
  %6 = load ptr, ptr getelementptr inbounds nuw (i8, ptr @_glfw, i64 137840), align 8, !tbaa !109
  %7 = getelementptr inbounds nuw i8, ptr %2, i64 712
  %8 = load i64, ptr %7, align 8, !tbaa !178
  tail call void %5(ptr noundef %6, i64 noundef %8, i32 noundef %0) #4
  br label %21

9:                                                ; preds = %1
  %10 = load i32, ptr getelementptr inbounds nuw (i8, ptr @_glfw, i64 143544), align 8, !tbaa !117
  %.not5 = icmp eq i32 %10, 0
  br i1 %.not5, label %14, label %11

11:                                               ; preds = %9
  %12 = load ptr, ptr getelementptr inbounds nuw (i8, ptr @_glfw, i64 143520), align 8, !tbaa !116
  %13 = tail call i32 %12(i32 noundef %0) #4
  br label %21

14:                                               ; preds = %9
  %15 = load i32, ptr getelementptr inbounds nuw (i8, ptr @_glfw, i64 143536), align 8, !tbaa !115
  %16 = icmp ne i32 %15, 0
  %17 = icmp sgt i32 %0, 0
  %or.cond = and i1 %17, %16
  br i1 %or.cond, label %18, label %21

18:                                               ; preds = %14
  %19 = load ptr, ptr getelementptr inbounds nuw (i8, ptr @_glfw, i64 143504), align 8, !tbaa !114
  %20 = tail call i32 %19(i32 noundef %0) #4
  br label %21

21:                                               ; preds = %11, %18, %14, %4
  ret void
}